; Function Attrs: nounwind uwtable
define noalias nonnull ptr @l_Lean_SMap_fromHashMap___rarg(ptr noundef readnone captures(none) %0, ptr noundef readnone captures(none) %1, ptr noundef %2, i8 noundef zeroext %3) local_unnamed_addr #0 {
  %5 = load ptr, ptr @l_Lean_SMap_instInhabited___rarg___closed__5, align 8, !tbaa !4
  tail call void @lean_inc_heartbeat() #3
  %6 = tail call noalias ptr @mi_malloc_small(i64 noundef 32) #3
  %7 = icmp eq ptr %6, null
  br i1 %7, label %8, label %lean_alloc_ctor.exit

8:                                                ; preds = %4
  tail call void @lean_internal_panic_out_of_memory() #4
  unreachable

lean_alloc_ctor.exit:                             ; preds = %4
  %9 = getelementptr inbounds nuw i8, ptr %6, i64 4
  %10 = getelementptr inbounds nuw i8, ptr %6, i64 24
  store i64 0, ptr %10, align 8, !tbaa !8
  store i32 1, ptr %6, align 4, !tbaa !10
  store i32 131104, ptr %9, align 4
  %11 = getelementptr inbounds nuw i8, ptr %6, i64 8
  store ptr %2, ptr %11, align 8, !tbaa !4
  %12 = getelementptr inbounds nuw i8, ptr %6, i64 16
  store ptr %5, ptr %12, align 8, !tbaa !4
  store i8 %3, ptr %10, align 1, !tbaa !16
  ret ptr %6
}